; Function Attrs: nounwind sspstrong uwtable
define internal fastcc i64 @rb_tmp_class_path(i64 noundef %0, ptr noundef nonnull writeonly captures(none) initializes((0, 1)) %1, ptr noundef readonly captures(none) %2) unnamed_addr #0 {
  %4 = alloca i8, align 1
  store i8 0, ptr %1, align 1, !tbaa !16
  %5 = inttoptr i64 %0 to ptr
  %6 = getelementptr inbounds nuw i8, ptr %5, i64 152
  %7 = load i64, ptr %6, align 8, !tbaa !18
  %8 = icmp eq i64 %7, 0
  br i1 %8, label %classname.exit.thread, label %classname.exit

classname.exit:                                   ; preds = %3
  %9 = getelementptr inbounds nuw i8, ptr %5, i64 149
  %10 = load i8, ptr %9, align 1
  %11 = and i8 %10, 1
  store i8 %11, ptr %1, align 1, !tbaa !16
  %12 = icmp eq i64 %7, 4
  br i1 %12, label %classname.exit.thread, label %29

classname.exit.thread:                            ; preds = %3, %classname.exit
  %13 = icmp eq i64 %0, 0
  %14 = and i64 %0, 7
  %15 = icmp ne i64 %14, 0
  %16 = or i1 %13, %15
  br i1 %16, label %rbimpl_RB_TYPE_P_fastpath.exit.thread, label %rbimpl_RB_TYPE_P_fastpath.exit

rbimpl_RB_TYPE_P_fastpath.exit:                   ; preds = %classname.exit.thread
  %17 = load i64, ptr %5, align 8, !tbaa !28
  %18 = and i64 %17, 31
  %19 = icmp eq i64 %18, 3
  br i1 %19, label %20, label %rbimpl_RB_TYPE_P_fastpath.exit.thread

20:                                               ; preds = %rbimpl_RB_TYPE_P_fastpath.exit
  %21 = tail call i64 @rb_obj_class(i64 noundef %0) #27
  %22 = load i64, ptr @rb_cModule, align 8, !tbaa !14
  %23 = icmp eq i64 %21, %22
  br i1 %23, label %rbimpl_RB_TYPE_P_fastpath.exit.thread, label %24

24:                                               ; preds = %20
  call void @llvm.lifetime.start.p0(i64 1, ptr nonnull %4) #27
  %25 = getelementptr inbounds nuw i8, ptr %5, i64 8
  %26 = load i64, ptr %25, align 8, !tbaa !36
  %27 = call fastcc i64 @rb_tmp_class_path(i64 noundef %26, ptr noundef %4, ptr noundef %2)
  call void @llvm.lifetime.end.p0(i64 1, ptr nonnull %4) #27
  br label %rbimpl_RB_TYPE_P_fastpath.exit.thread

rbimpl_RB_TYPE_P_fastpath.exit.thread:            ; preds = %classname.exit.thread, %20, %24, %rbimpl_RB_TYPE_P_fastpath.exit
  %.0 = phi i64 [ %27, %24 ], [ 4, %rbimpl_RB_TYPE_P_fastpath.exit ], [ 0, %20 ], [ 4, %classname.exit.thread ]
  store i8 0, ptr %1, align 1, !tbaa !16
  %28 = tail call i64 %2(i64 noundef %0, i64 noundef %.0) #27, !callees !37
  br label %29

29:                                               ; preds = %classname.exit, %rbimpl_RB_TYPE_P_fastpath.exit.thread
  %.012 = phi i64 [ %28, %rbimpl_RB_TYPE_P_fastpath.exit.thread ], [ %7, %classname.exit ]
  ret i64 %.012
}